target datalayout = "e-m:e-p270:32:32-p271:32:32-p272:64:64-i64:64-i128:128-f80:128-n8:16:32:64-S128"
target triple = "x86_64-pc-linux-gnu"

@.str.96 = private unnamed_addr constant [5 x i8] c"NULL\00", align 1

; Function Attrs: nounwind uwtable
define dso_local ptr @ldbRedisProtocolToHuman_Bulk(ptr noundef %0, ptr noundef %1) #0 {
  %3 = alloca ptr, align 8
  %4 = alloca ptr, align 8
  %5 = alloca ptr, align 8
  %6 = alloca ptr, align 8
  %7 = alloca i64, align 8
  %8 = alloca i32, align 4
  store ptr %0, ptr %4, align 8, !tbaa !100
  store ptr %1, ptr %5, align 8, !tbaa !16
  call void @llvm.lifetime.start.p0(i64 8, ptr %6) #14
  %9 = load ptr, ptr %5, align 8, !tbaa !16
  %10 = getelementptr inbounds i8, ptr %9, i64 1
  %11 = call ptr @strchr(ptr noundef %10, i32 noundef 13) #13
  store ptr %11, ptr %6, align 8, !tbaa !16
  call void @llvm.lifetime.start.p0(i64 8, ptr %7) #14
  %12 = load ptr, ptr %5, align 8, !tbaa !16
  %13 = getelementptr inbounds i8, ptr %12, i64 1
  %14 = load ptr, ptr %6, align 8, !tbaa !16
  %15 = load ptr, ptr %5, align 8, !tbaa !16
  %16 = ptrtoint ptr %14 to i64
  %17 = ptrtoint ptr %15 to i64
  %18 = sub i64 %16, %17
  %19 = sub nsw i64 %18, 1
  %20 = call i32 @string2ll(ptr noundef %13, i64 noundef %19, ptr noundef %7)
  %21 = load i64, ptr %7, align 8, !tbaa !143
  %22 = icmp eq i64 %21, -1
  br i1 %22, label %23, label %30

23:                                               ; preds = %2
  %24 = load ptr, ptr %4, align 8, !tbaa !100
  %25 = load ptr, ptr %24, align 8, !tbaa !16
  %26 = call ptr @sdscatlen(ptr noundef %25, ptr noundef @.str.96, i64 noundef 4)
  %27 = load ptr, ptr %4, align 8, !tbaa !100
  store ptr %26, ptr %27, align 8, !tbaa !16
  %28 = load ptr, ptr %6, align 8, !tbaa !16
  %29 = getelementptr inbounds i8, ptr %28, i64 2
  store ptr %29, ptr %3, align 8
  store i32 1, ptr %8, align 4
  br label %43

30:                                               ; preds = %2
  %31 = load ptr, ptr %4, align 8, !tbaa !100
  %32 = load ptr, ptr %31, align 8, !tbaa !16
  %33 = load ptr, ptr %6, align 8, !tbaa !16
  %34 = getelementptr inbounds i8, ptr %33, i64 2
  %35 = load i64, ptr %7, align 8, !tbaa !143
  %36 = call ptr @sdscatrepr(ptr noundef %32, ptr noundef %34, i64 noundef %35)
  %37 = load ptr, ptr %4, align 8, !tbaa !100
  store ptr %36, ptr %37, align 8, !tbaa !16
  %38 = load ptr, ptr %6, align 8, !tbaa !16
  %39 = getelementptr inbounds i8, ptr %38, i64 2
  %40 = load i64, ptr %7, align 8, !tbaa !143
  %41 = getelementptr inbounds i8, ptr %39, i64 %40
  %42 = getelementptr inbounds i8, ptr %41, i64 2
  store ptr %42, ptr %3, align 8
  store i32 1, ptr %8, align 4
  br label %43

43:                                               ; preds = %30, %23
  call void @llvm.lifetime.end.p0(i64 8, ptr %7) #14
  call void @llvm.lifetime.end.p0(i64 8, ptr %6) #14
  %44 = load ptr, ptr %3, align 8
  ret ptr %44
}