; Function Attrs: nounwind uwtable
define dso_local nonnull ptr @ldbRedisProtocolToHuman_Bulk(ptr noundef captures(none) %0, ptr noundef %1) local_unnamed_addr #0 {
  %3 = alloca i64, align 8
  %4 = getelementptr inbounds nuw i8, ptr %1, i64 1
  %5 = tail call ptr @strchr(ptr noundef nonnull dereferenceable(1) %4, i32 noundef 13) #18
  call void @llvm.lifetime.start.p0(i64 8, ptr nonnull %3) #19
  %6 = ptrtoint ptr %5 to i64
  %7 = ptrtoint ptr %1 to i64
  %8 = xor i64 %7, -1
  %9 = add i64 %6, %8
  %10 = call i32 @string2ll(ptr noundef nonnull %4, i64 noundef %9, ptr noundef nonnull %3) #19
  %11 = load i64, ptr %3, align 8, !tbaa !131
  %12 = icmp eq i64 %11, -1
  %13 = load ptr, ptr %0, align 8, !tbaa !92
  br i1 %12, label %14, label %16

14:                                               ; preds = %2
  %15 = call ptr @sdscatlen(ptr noundef %13, ptr noundef nonnull @.str.96, i64 noundef 4) #19
  br label %21

16:                                               ; preds = %2
  %17 = getelementptr inbounds nuw i8, ptr %5, i64 2
  %18 = call ptr @sdscatrepr(ptr noundef %13, ptr noundef nonnull %17, i64 noundef %11) #19
  %19 = load i64, ptr %3, align 8, !tbaa !131
  %20 = getelementptr inbounds i8, ptr %17, i64 %19
  br label %21

21:                                               ; preds = %16, %14
  %.sink = phi ptr [ %15, %14 ], [ %18, %16 ]
  %.pn = phi ptr [ %5, %14 ], [ %20, %16 ]
  store ptr %.sink, ptr %0, align 8, !tbaa !92
  %.0 = getelementptr inbounds nuw i8, ptr %.pn, i64 2
  call void @llvm.lifetime.end.p0(i64 8, ptr nonnull %3) #19
  ret ptr %.0
}